target datalayout = "e-m:e-p270:32:32-p271:32:32-p272:64:64-i64:64-i128:128-f80:128-n8:16:32:64-S128"
target triple = "x86_64-pc-linux-gnu"

%union.SourceSpan = type { i64 }
%struct.anon = type { i16, i8, i8, i32 }
%struct.File = type { i16, ptr, i64, ptr, ptr, ptr }

; Function Attrs: nounwind uwtable
define dso_local ptr @span_to_string(i64 %0) #0 {
  %2 = alloca ptr, align 8
  %3 = alloca %union.SourceSpan, align 8
  %4 = alloca ptr, align 8
  %5 = alloca ptr, align 8
  %6 = alloca i32, align 4
  %7 = alloca i32, align 4
  %8 = alloca i32, align 4
  %9 = alloca i32, align 4
  %10 = alloca ptr, align 8
  %11 = getelementptr inbounds %union.SourceSpan, ptr %3, i32 0, i32 0
  store i64 %0, ptr %11, align 8
  %12 = getelementptr inbounds %struct.anon, ptr %3, i32 0, i32 0
  %13 = load i16, ptr %12, align 8
  %14 = call ptr @source_file_by_id(i16 noundef zeroext %13)
  store ptr %14, ptr %4, align 8
  %15 = load ptr, ptr %4, align 8
  %16 = getelementptr inbounds %struct.File, ptr %15, i32 0, i32 1
  %17 = load ptr, ptr %16, align 8
  store ptr %17, ptr %5, align 8
  store i32 1, ptr %6, align 4
  %18 = getelementptr inbounds %struct.anon, ptr %3, i32 0, i32 3
  %19 = load i32, ptr %18, align 4
  store i32 %19, ptr %7, align 4
  %20 = getelementptr inbounds %struct.anon, ptr %3, i32 0, i32 1
  %21 = load i8, ptr %20, align 2
  %22 = zext i8 %21 to i32
  store i32 %22, ptr %8, align 4
  %23 = getelementptr inbounds %struct.anon, ptr %3, i32 0, i32 2
  %24 = load i8, ptr %23, align 1
  %25 = zext i8 %24 to i32
  store i32 %25, ptr %9, align 4
  %26 = load i32, ptr %7, align 4
  %27 = icmp ne i32 %26, 0
  br i1 %27, label %28, label %34

28:                                               ; preds = %1
  %29 = load i32, ptr %8, align 4
  %30 = icmp ne i32 %29, 0
  br i1 %30, label %31, label %34

31:                                               ; preds = %28
  %32 = load i32, ptr %9, align 4
  %33 = icmp ne i32 %32, 0
  br i1 %33, label %35, label %34

34:                                               ; preds = %31, %28, %1
  store ptr null, ptr %2, align 8
  br label %62

35:                                               ; preds = %31
  br label %36

36:                                               ; preds = %51, %35
  %37 = load i32, ptr %6, align 4
  %38 = load i32, ptr %7, align 4
  %39 = icmp ult i32 %37, %38
  br i1 %39, label %40, label %52

40:                                               ; preds = %36
  %41 = load ptr, ptr %5, align 8
  %42 = getelementptr inbounds i8, ptr %41, i32 1
  store ptr %42, ptr %5, align 8
  %43 = getelementptr inbounds i8, ptr %41, i64 0
  %44 = load i8, ptr %43, align 1
  %45 = sext i8 %44 to i32
  switch i32 %45, label %50 [
    i32 0, label %46
    i32 10, label %47
  ]

46:                                               ; preds = %40
  store ptr null, ptr %2, align 8
  br label %62

47:                                               ; preds = %40
  %48 = load i32, ptr %6, align 4
  %49 = add i32 %48, 1
  store i32 %49, ptr %6, align 4
  br label %50

50:                                               ; preds = %47, %40
  br label %51

51:                                               ; preds = %50
  br label %36, !llvm.loop !16

52:                                               ; preds = %36
  %53 = load ptr, ptr %5, align 8
  %54 = load i32, ptr %9, align 4
  %55 = zext i32 %54 to i64
  %56 = getelementptr inbounds i8, ptr %53, i64 %55
  %57 = getelementptr inbounds i8, ptr %56, i64 -1
  store ptr %57, ptr %10, align 8
  %58 = load ptr, ptr %10, align 8
  %59 = load i32, ptr %8, align 4
  %60 = zext i32 %59 to i64
  %61 = call ptr @str_copy(ptr noundef %58, i64 noundef %60)
  store ptr %61, ptr %2, align 8
  br label %62

62:                                               ; preds = %52, %46, %34
  %63 = load ptr, ptr %2, align 8
  ret ptr %63
}