; Function Attrs: nounwind uwtable
define dso_local ptr @span_to_string(i64 %0) local_unnamed_addr #0 {
  %.sroa.0.0.extract.trunc = trunc i64 %0 to i16
  %2 = trunc i64 %0 to i32
  %3 = lshr i32 %2, 16
  %4 = lshr i64 %0, 24
  %.sroa.4.0.extract.shift = lshr i64 %0, 32
  %.sroa.4.0.extract.trunc = trunc nuw i64 %.sroa.4.0.extract.shift to i32
  %5 = tail call ptr @source_file_by_id(i16 noundef zeroext %.sroa.0.0.extract.trunc) #8
  %6 = and i32 %3, 255
  %7 = icmp ne i32 %.sroa.4.0.extract.trunc, 0
  %8 = icmp ne i32 %6, 0
  %or.cond = and i1 %7, %8
  %9 = and i64 %0, 4278190080
  %10 = icmp ne i64 %9, 0
  %or.cond3 = and i1 %10, %or.cond
  br i1 %or.cond3, label %.preheader, label %.loopexit

.preheader:                                       ; preds = %1
  %11 = getelementptr inbounds i8, ptr %5, i64 8
  %12 = load ptr, ptr %11, align 8
  %13 = icmp ugt i32 %.sroa.4.0.extract.trunc, 1
  br i1 %13, label %.lr.ph, label %._crit_edge

.lr.ph:                                           ; preds = %.preheader, %18
  %.01519 = phi ptr [ %14, %18 ], [ %12, %.preheader ]
  %.01618 = phi i32 [ %.1, %18 ], [ 1, %.preheader ]
  %14 = getelementptr inbounds i8, ptr %.01519, i64 1
  %15 = load i8, ptr %.01519, align 1
  switch i8 %15, label %18 [
    i8 0, label %.loopexit
    i8 10, label %16
  ]

16:                                               ; preds = %.lr.ph
  %17 = add nuw i32 %.01618, 1
  br label %18

18:                                               ; preds = %.lr.ph, %16
  %.1 = phi i32 [ %.01618, %.lr.ph ], [ %17, %16 ]
  %19 = icmp ult i32 %.1, %.sroa.4.0.extract.trunc
  br i1 %19, label %.lr.ph, label %._crit_edge, !llvm.loop !16

._crit_edge:                                      ; preds = %18, %.preheader
  %.015.lcssa = phi ptr [ %12, %.preheader ], [ %14, %18 ]
  %20 = and i64 %4, 255
  %21 = getelementptr inbounds i8, ptr %.015.lcssa, i64 %20
  %22 = getelementptr inbounds i8, ptr %21, i64 -1
  %23 = zext nneg i32 %6 to i64
  %24 = tail call ptr @str_copy(ptr noundef nonnull %22, i64 noundef %23) #8
  br label %.loopexit

.loopexit:                                        ; preds = %.lr.ph, %1, %._crit_edge
  %.0 = phi ptr [ %24, %._crit_edge ], [ null, %1 ], [ null, %.lr.ph ]
  ret ptr %.0
}